target datalayout = "e-m:e-p270:32:32-p271:32:32-p272:64:64-i64:64-i128:128-f80:128-n8:16:32:64-S128"
target triple = "x86_64-pc-linux-gnu"

%union.pthread_condattr_t = type { i32 }

; Function Attrs: nounwind uwtable
define dso_local i32 @uv_cond_init(ptr noundef %0) #0 {
  %2 = alloca i32, align 4
  %3 = alloca ptr, align 8
  %4 = alloca %union.pthread_condattr_t, align 4
  %5 = alloca i32, align 4
  %6 = alloca i32, align 4
  store ptr %0, ptr %3, align 8, !tbaa !4
  call void @llvm.lifetime.start.p0(i64 4, ptr %4) #8
  call void @llvm.lifetime.start.p0(i64 4, ptr %5) #8
  %7 = call i32 @pthread_condattr_init(ptr noundef %4) #8
  store i32 %7, ptr %5, align 4, !tbaa !8
  %8 = load i32, ptr %5, align 4, !tbaa !8
  %9 = icmp ne i32 %8, 0
  br i1 %9, label %10, label %13

10:                                               ; preds = %1
  %11 = load i32, ptr %5, align 4, !tbaa !8
  %12 = sub nsw i32 0, %11
  store i32 %12, ptr %2, align 4
  store i32 1, ptr %6, align 4
  br label %37

13:                                               ; preds = %1
  %14 = call i32 @pthread_condattr_setclock(ptr noundef %4, i32 noundef 1) #8
  store i32 %14, ptr %5, align 4, !tbaa !8
  %15 = load i32, ptr %5, align 4, !tbaa !8
  %16 = icmp ne i32 %15, 0
  br i1 %16, label %17, label %18

17:                                               ; preds = %13
  br label %33

18:                                               ; preds = %13
  %19 = load ptr, ptr %3, align 8, !tbaa !4
  %20 = call i32 @pthread_cond_init(ptr noundef %19, ptr noundef %4) #8
  store i32 %20, ptr %5, align 4, !tbaa !8
  %21 = load i32, ptr %5, align 4, !tbaa !8
  %22 = icmp ne i32 %21, 0
  br i1 %22, label %23, label %24

23:                                               ; preds = %18
  br label %33

24:                                               ; preds = %18
  %25 = call i32 @pthread_condattr_destroy(ptr noundef %4) #8
  store i32 %25, ptr %5, align 4, !tbaa !8
  %26 = load i32, ptr %5, align 4, !tbaa !8
  %27 = icmp ne i32 %26, 0
  br i1 %27, label %28, label %29

28:                                               ; preds = %24
  br label %30

29:                                               ; preds = %24
  store i32 0, ptr %2, align 4
  store i32 1, ptr %6, align 4
  br label %37

30:                                               ; preds = %28
  %31 = load ptr, ptr %3, align 8, !tbaa !4
  %32 = call i32 @pthread_cond_destroy(ptr noundef %31) #8
  br label %33

33:                                               ; preds = %30, %23, %17
  %34 = call i32 @pthread_condattr_destroy(ptr noundef %4) #8
  %35 = load i32, ptr %5, align 4, !tbaa !8
  %36 = sub nsw i32 0, %35
  store i32 %36, ptr %2, align 4
  store i32 1, ptr %6, align 4
  br label %37

37:                                               ; preds = %33, %29, %10
  call void @llvm.lifetime.end.p0(i64 4, ptr %5) #8
  call void @llvm.lifetime.end.p0(i64 4, ptr %4) #8
  %38 = load i32, ptr %2, align 4
  ret i32 %38
}