; Function Attrs: nounwind uwtable
define dso_local range(i32 -2147483647, -2147483648) i32 @uv_cond_init(ptr noundef %0) local_unnamed_addr #0 {
  %2 = alloca %union.pthread_condattr_t, align 4
  call void @llvm.lifetime.start.p0(i64 4, ptr nonnull %2) #10
  %3 = call i32 @pthread_condattr_init(ptr noundef nonnull %2) #10
  %.not = icmp eq i32 %3, 0
  br i1 %.not, label %6, label %4

4:                                                ; preds = %1
  %5 = sub nsw i32 0, %3
  br label %17

6:                                                ; preds = %1
  %7 = call i32 @pthread_condattr_setclock(ptr noundef nonnull %2, i32 noundef 1) #10
  %.not13 = icmp eq i32 %7, 0
  br i1 %.not13, label %8, label %14

8:                                                ; preds = %6
  %9 = call i32 @pthread_cond_init(ptr noundef %0, ptr noundef nonnull %2) #10
  %.not14 = icmp eq i32 %9, 0
  br i1 %.not14, label %10, label %14

10:                                               ; preds = %8
  %11 = call i32 @pthread_condattr_destroy(ptr noundef nonnull %2) #10
  %.not15 = icmp eq i32 %11, 0
  br i1 %.not15, label %17, label %12

12:                                               ; preds = %10
  %13 = call i32 @pthread_cond_destroy(ptr noundef %0) #10
  br label %14

14:                                               ; preds = %8, %6, %12
  %.0 = phi i32 [ %7, %6 ], [ %9, %8 ], [ %11, %12 ]
  %15 = call i32 @pthread_condattr_destroy(ptr noundef nonnull %2) #10
  %16 = sub nsw i32 0, %.0
  br label %17

17:                                               ; preds = %10, %14, %4
  %.08 = phi i32 [ %5, %4 ], [ %16, %14 ], [ 0, %10 ]
  call void @llvm.lifetime.end.p0(i64 4, ptr nonnull %2) #10
  ret i32 %.08
}